; Function Attrs: mustprogress nofree norecurse nosync nounwind memory(readwrite, inaccessiblemem: none) uwtable
define void @_ZN6Assimp11SMDImporter13FixTimeValuesEv(ptr noundef nonnull align 8 captures(none) dereferenceable(226) %0) local_unnamed_addr #8 align 2 {
  %2 = getelementptr inbounds nuw i8, ptr %0, i64 200
  %3 = load i32, ptr %2, align 8
  %4 = sitofp i32 %3 to double
  %5 = getelementptr inbounds nuw i8, ptr %0, i64 176
  %6 = load ptr, ptr %5, align 8
  %7 = getelementptr inbounds nuw i8, ptr %0, i64 184
  %8 = load ptr, ptr %7, align 8
  %.not21 = icmp eq ptr %6, %8
  br i1 %.not21, label %._crit_edge26, label %.lr.ph25

._crit_edge26:                                    ; preds = %._crit_edge, %1
  %.0.lcssa = phi double [ 0.000000e+00, %1 ], [ %.1.lcssa, %._crit_edge ]
  %9 = getelementptr inbounds nuw i8, ptr %0, i64 208
  store double %.0.lcssa, ptr %9, align 8
  ret void

.lr.ph25:                                         ; preds = %1, %._crit_edge
  %.023 = phi double [ %.1.lcssa, %._crit_edge ], [ 0.000000e+00, %1 ]
  %.sroa.013.022 = phi ptr [ %14, %._crit_edge ], [ %6, %1 ]
  %10 = getelementptr inbounds nuw i8, ptr %.sroa.013.022, i64 48
  %11 = load ptr, ptr %10, align 8
  %12 = getelementptr inbounds nuw i8, ptr %.sroa.013.022, i64 56
  %13 = load ptr, ptr %12, align 8
  %.not1718 = icmp eq ptr %11, %13
  br i1 %.not1718, label %._crit_edge, label %.lr.ph

._crit_edge:                                      ; preds = %.lr.ph, %.lr.ph25
  %.1.lcssa = phi double [ %.023, %.lr.ph25 ], [ %.sroa.speculated, %.lr.ph ]
  %14 = getelementptr inbounds nuw i8, ptr %.sroa.013.022, i64 144
  %.not = icmp eq ptr %14, %8
  br i1 %.not, label %._crit_edge26, label %.lr.ph25

.lr.ph:                                           ; preds = %.lr.ph25, %.lr.ph
  %.120 = phi double [ %.sroa.speculated, %.lr.ph ], [ %.023, %.lr.ph25 ]
  %.sroa.09.019 = phi ptr [ %19, %.lr.ph ], [ %11, %.lr.ph25 ]
  %15 = getelementptr inbounds nuw i8, ptr %.sroa.09.019, i64 152
  %16 = load double, ptr %15, align 8
  %17 = fsub double %16, %4
  store double %17, ptr %15, align 8
  %18 = fcmp olt double %.120, %17
  %.sroa.speculated = select i1 %18, double %17, double %.120
  %19 = getelementptr inbounds nuw i8, ptr %.sroa.09.019, i64 160
  %.not17 = icmp eq ptr %19, %13
  br i1 %.not17, label %._crit_edge, label %.lr.ph
}